; Function Attrs: mustprogress uwtable
define void @_ZN10llama_fileC2EPKcS1_(ptr noundef nonnull writeonly align 8 captures(none) dereferenceable(8) %0, ptr noundef %1, ptr noundef %2) unnamed_addr #0 align 2 personality ptr @__gxx_personality_v0 {
  tail call void @llvm.experimental.noalias.scope.decl(metadata !3)
  %4 = tail call noalias noundef nonnull dereferenceable(16) ptr @_Znwm(i64 noundef 16) #22, !noalias !3
  invoke void @_ZN10llama_file4implC2EPKcS2_(ptr noundef nonnull align 8 dereferenceable(16) %4, ptr noundef %1, ptr noundef %2)
          to label %_ZSt11make_uniqueIN10llama_file4implEJRPKcS4_EENSt8__detail9_MakeUniqIT_E15__single_objectEDpOT0_.exit unwind label %5, !noalias !3

5:                                                ; preds = %3
  %6 = landingpad { ptr, i32 }
          cleanup
  tail call void @_ZdlPvm(ptr noundef nonnull %4, i64 noundef 16) #23, !noalias !3
  resume { ptr, i32 } %6

_ZSt11make_uniqueIN10llama_file4implEJRPKcS4_EENSt8__detail9_MakeUniqIT_E15__single_objectEDpOT0_.exit: ; preds = %3
  store ptr %4, ptr %0, align 8, !tbaa !6, !alias.scope !3
  ret void
}